; Function Attrs: nounwind ssp uwtable
define internal noundef i32 @crypto_scalarmult_curve25519_ref10_base(ptr noundef %0, ptr noundef readonly captures(none) %1) #0 {
  %3 = alloca [5 x i64], align 16
  %4 = alloca [5 x i64], align 16
  %5 = alloca %struct.ge25519_p3, align 8
  %6 = alloca [5 x i64], align 16
  call void @llvm.lifetime.start.p0(i64 160, ptr nonnull %5) #6
  call void @llvm.lifetime.start.p0(i64 40, ptr nonnull %6) #6
  br label %7

7:                                                ; preds = %2, %7
  %indvars.iv = phi i64 [ 0, %2 ], [ %indvars.iv.next, %7 ]
  %8 = getelementptr i8, ptr %1, i64 %indvars.iv
  %9 = load i8, ptr %8, align 1
  %10 = getelementptr i8, ptr %0, i64 %indvars.iv
  store i8 %9, ptr %10, align 1
  %indvars.iv.next = add nuw nsw i64 %indvars.iv, 1
  %exitcond.not = icmp eq i64 %indvars.iv.next, 32
  br i1 %exitcond.not, label %11, label %7, !llvm.loop !11

11:                                               ; preds = %7
  %12 = load i8, ptr %0, align 1
  %13 = and i8 %12, -8
  store i8 %13, ptr %0, align 1
  %14 = getelementptr i8, ptr %0, i64 31
  %15 = load i8, ptr %14, align 1
  %16 = and i8 %15, 63
  %17 = or disjoint i8 %16, 64
  store i8 %17, ptr %14, align 1
  call void @_sodium_ge25519_scalarmult_base(ptr noundef nonnull %5, ptr noundef nonnull %0) #6
  %18 = getelementptr inbounds nuw i8, ptr %5, i64 40
  %19 = getelementptr inbounds nuw i8, ptr %5, i64 80
  call void @llvm.lifetime.start.p0(i64 40, ptr nonnull %3) #6
  call void @llvm.lifetime.start.p0(i64 40, ptr nonnull %4) #6
  %20 = load i64, ptr %19, align 8
  %21 = load i64, ptr %18, align 8
  %22 = add i64 %21, %20
  %23 = getelementptr inbounds nuw i8, ptr %5, i64 88
  %24 = load i64, ptr %23, align 8
  %25 = getelementptr inbounds nuw i8, ptr %5, i64 48
  %26 = load i64, ptr %25, align 8
  %27 = add i64 %26, %24
  %28 = getelementptr inbounds nuw i8, ptr %5, i64 96
  %29 = load i64, ptr %28, align 8
  %30 = getelementptr inbounds nuw i8, ptr %5, i64 56
  %31 = load i64, ptr %30, align 8
  %32 = add i64 %31, %29
  %33 = getelementptr inbounds nuw i8, ptr %5, i64 104
  %34 = load i64, ptr %33, align 8
  %35 = getelementptr inbounds nuw i8, ptr %5, i64 64
  %36 = load i64, ptr %35, align 8
  %37 = add i64 %36, %34
  %38 = getelementptr inbounds nuw i8, ptr %5, i64 112
  %39 = load i64, ptr %38, align 8
  %40 = getelementptr inbounds nuw i8, ptr %5, i64 72
  %41 = load i64, ptr %40, align 8
  %42 = add i64 %41, %39
  store i64 %22, ptr %3, align 16
  %43 = getelementptr inbounds nuw i8, ptr %3, i64 8
  store i64 %27, ptr %43, align 8
  %44 = getelementptr inbounds nuw i8, ptr %3, i64 16
  store i64 %32, ptr %44, align 16
  %45 = getelementptr inbounds nuw i8, ptr %3, i64 24
  store i64 %37, ptr %45, align 8
  %46 = getelementptr inbounds nuw i8, ptr %3, i64 32
  store i64 %42, ptr %46, align 16
  %47 = lshr i64 %21, 51
  %48 = add i64 %26, %47
  %49 = and i64 %21, 2251799813685247
  %50 = lshr i64 %48, 51
  %51 = add i64 %50, %31
  %52 = and i64 %48, 2251799813685247
  %53 = lshr i64 %51, 51
  %54 = add i64 %53, %36
  %55 = and i64 %51, 2251799813685247
  %56 = lshr i64 %54, 51
  %57 = add i64 %56, %41
  %58 = and i64 %54, 2251799813685247
  %59 = lshr i64 %57, 51
  %60 = and i64 %57, 2251799813685247
  %.neg39.i.i = mul nsw i64 %59, -19
  %reass.sub.i.i = add i64 %20, 4503599627370458
  %61 = sub i64 %reass.sub.i.i, %49
  %62 = add i64 %61, %.neg39.i.i
  %reass.sub45.i.i = add i64 %24, 4503599627370494
  %63 = sub i64 %reass.sub45.i.i, %52
  %reass.sub46.i.i = add i64 %29, 4503599627370494
  %64 = sub i64 %reass.sub46.i.i, %55
  %reass.sub47.i.i = add i64 %34, 4503599627370494
  %65 = sub i64 %reass.sub47.i.i, %58
  %66 = add i64 %39, 4503599627370494
  %67 = sub i64 %66, %60
  store i64 %62, ptr %4, align 16
  %68 = getelementptr inbounds nuw i8, ptr %4, i64 8
  store i64 %63, ptr %68, align 8
  %69 = getelementptr inbounds nuw i8, ptr %4, i64 16
  store i64 %64, ptr %69, align 16
  %70 = getelementptr inbounds nuw i8, ptr %4, i64 24
  store i64 %65, ptr %70, align 8
  %71 = getelementptr inbounds nuw i8, ptr %4, i64 32
  store i64 %67, ptr %71, align 16
  call void @_sodium_fe25519_invert(ptr noundef nonnull %4, ptr noundef nonnull %4) #6
  call fastcc void @fe25519_mul(ptr noundef nonnull %6, ptr noundef %3, ptr noundef %4)
  call void @llvm.lifetime.end.p0(i64 40, ptr nonnull %4) #6
  call void @llvm.lifetime.end.p0(i64 40, ptr nonnull %3) #6
  call void @_sodium_fe25519_tobytes(ptr noundef nonnull %0, ptr noundef nonnull %6) #6
  call void @llvm.lifetime.end.p0(i64 40, ptr nonnull %6) #6
  call void @llvm.lifetime.end.p0(i64 160, ptr nonnull %5) #6
  ret i32 0
}